(lp1
(dp2
S'users'
p3
(lp4
(dp5
V_id
p6
ccopy_reg
_reconstructor
p7
(cbson.objectid
ObjectId
p8
c__builtin__
object
p9
NtRp10
S'Oo\xb6\xdd\x17\xe8\xf5\xfd\xb3gK\xf3'
p11
bsVname
p12
Vsasha
p13
sasa(dp14
S'groups'
p15
(lp16
(dp17
VA
V1
sV_id
p18
g7
(g8
g9
NtRp19
S'Oo\xb7\x05\x17\xe8\xf5\xfd\xb3gK\xf4'
p20
bsasa.